
Discarded input sections

 .group         0x0000000000000000        0xc kernel.o

Memory Configuration

Name             Origin             Length             Attributes
*default*        0x0000000000000000 0xffffffffffffffff

Linker script and memory map

LOAD main.o
LOAD kernel.o
LOAD /home/atm959/opt/cross/lib/gcc/i686-elf/9.1.0/libgcc.a
                0x0000000000007c00                . = 0x7c00

.text           0x0000000000007c00      0xc9b
 *(.boot)
 .boot          0x0000000000007c00      0x402 main.o
                0x0000000000007c00                start
                0x0000000000007e25                zeroDivide
                0x0000000000007e4b                irq0
                0x0000000000007e53                irq1
                0x0000000000007e56                irq2
                0x0000000000007e59                irq3
                0x0000000000007e5c                irq4
                0x0000000000007e5f                irq5
                0x0000000000007e62                irq6
                0x0000000000007e65                irq7
                0x0000000000007e68                irq8
                0x0000000000007e6b                irq9
                0x0000000000007e6e                irq10
                0x0000000000007e71                irq11
                0x0000000000007e74                irq12
                0x0000000000007e77                irq13
                0x0000000000007e7a                irq14
                0x0000000000007e7d                irq15
                0x0000000000007e80                halt
                0x0000000000007ff9                load_idt
 *(.text)
 *fill*         0x0000000000008002        0xe 
 .text          0x0000000000008010      0x88b kernel.o
                0x0000000000008010                renderText
                0x00000000000080f0                fillBG
                0x0000000000008120                getCMOSSeconds
                0x0000000000008130                getCMOSMinutes
                0x0000000000008140                getCMOSHours
                0x0000000000008150                idt_init
                0x00000000000083d0                irq0_handler
                0x00000000000083e0                irq1_handler
                0x00000000000083f0                irq2_handler
                0x0000000000008400                irq3_handler
                0x0000000000008410                irq4_handler
                0x0000000000008420                irq5_handler
                0x0000000000008430                irq6_handler
                0x0000000000008440                irq7_handler
                0x0000000000008450                irq8_handler
                0x0000000000008460                irq9_handler
                0x0000000000008470                irq10_handler
                0x0000000000008480                irq11_handler
                0x0000000000008490                irq12_handler
                0x00000000000084a0                irq13_handler
                0x00000000000084b0                irq14_handler
                0x00000000000084c0                irq15_handler
                0x00000000000084d0                clearScreen
                0x00000000000084f0                print8Bit
                0x0000000000008580                print16Bit
                0x0000000000008620                print32Bit
                0x00000000000086b0                printBinary8Bit
                0x0000000000008740                placeText
                0x00000000000087a0                shiftScreenUp
                0x00000000000087e0                initTimerInterrupt
                0x0000000000008800                kernelMain

.text._ZN6Window6renderEv
                0x00000000000088a0      0x26e
 .text._ZN6Window6renderEv
                0x00000000000088a0      0x26e kernel.o
                0x00000000000088a0                _ZN6Window6renderEv

.text.startup   0x0000000000008b10       0x15
 .text.startup  0x0000000000008b10       0x15 kernel.o

.rodata         0x0000000000008b40      0xa20
 *(.rodata)
 .rodata        0x0000000000008b40      0xa20 kernel.o

.rodata.str1.1  0x0000000000009560       0x27
 .rodata.str1.1
                0x0000000000009560       0x27 kernel.o

.eh_frame       0x0000000000009588      0x3fc
 .eh_frame      0x0000000000009588      0x3fc kernel.o

.data           0x00000000000099a0       0x64
 *(.data)
 .data          0x00000000000099a0       0x64 kernel.o
                0x00000000000099a0                windowCloseWidget
                0x00000000000099fc                vidMemMode13
                0x0000000000009a00                vidMemText

.ctors          0x0000000000009a04        0x4
 .ctors         0x0000000000009a04        0x4 kernel.o

.bss            0x0000000000009a20     0x4a20
 *(.bss)
 .bss           0x0000000000009a20     0x4000 main.o
 .bss           0x000000000000da20      0xa20 kernel.o
                0x000000000000da20                testWindow
                0x000000000000da40                windows
                0x000000000000dc40                IDT
OUTPUT(myos.bin binary)

.comment        0x0000000000000000       0x12
 .comment       0x0000000000000000       0x12 kernel.o
